target datalayout = "e-m:e-p270:32:32-p271:32:32-p272:64:64-i64:64-i128:128-f80:128-n8:16:32:64-S128"
target triple = "x86_64-pc-linux-gnu"

%"struct.icu_77::number::impl::Modifier::Parameters" = type { ptr, i32, i32 }
%"class.icu_77::number::impl::Modifier" = type { ptr }
%"class.icu_77::number::impl::ConstantMultiFieldModifier" = type { %"class.icu_77::number::impl::Modifier", %"class.icu_77::FormattedStringBuilder", %"class.icu_77::FormattedStringBuilder", i8, i8, %"struct.icu_77::number::impl::Modifier::Parameters" }
%"class.icu_77::FormattedStringBuilder" = type { i8, %"union.icu_77::FormattedStringBuilder::ValueOrHeapArray", %"union.icu_77::FormattedStringBuilder::ValueOrHeapArray.0", i32, i32 }
%"union.icu_77::FormattedStringBuilder::ValueOrHeapArray" = type { %struct.anon, [64 x i8] }
%struct.anon = type { ptr, i32 }
%"union.icu_77::FormattedStringBuilder::ValueOrHeapArray.0" = type { %struct.anon.1, [24 x i8] }
%struct.anon.1 = type { ptr, i32 }

@_ZTIN6icu_776number4impl8ModifierE = constant { ptr, ptr } { ptr getelementptr inbounds (ptr, ptr @_ZTVN10__cxxabiv117__class_type_infoE, i64 2), ptr @_ZTSN6icu_776number4impl8ModifierE }, align 8

; Function Attrs: mustprogress uwtable
define noundef zeroext i1 @_ZNK6icu_776number4impl26ConstantMultiFieldModifier12strictEqualsERKNS1_8ModifierE(ptr noundef nonnull align 8 dereferenceable(304) %0, ptr noundef nonnull align 8 dereferenceable(8) %1) unnamed_addr #2 align 2 {
  %3 = alloca i1, align 1
  %4 = alloca ptr, align 8
  %5 = alloca ptr, align 8
  %6 = alloca ptr, align 8
  %7 = alloca i32, align 4
  store ptr %0, ptr %4, align 8, !tbaa !76
  store ptr %1, ptr %5, align 8, !tbaa !3
  %8 = load ptr, ptr %4, align 8
  call void @llvm.lifetime.start.p0(i64 8, ptr %6) #15
  %9 = load ptr, ptr %5, align 8, !tbaa !3
  %10 = icmp eq ptr %9, null
  br i1 %10, label %13, label %11

11:                                               ; preds = %2
  %12 = call ptr @__dynamic_cast(ptr %9, ptr @_ZTIN6icu_776number4impl8ModifierE, ptr @_ZTIN6icu_776number4impl26ConstantMultiFieldModifierE, i64 0) #15
  br label %14

13:                                               ; preds = %2
  br label %14

14:                                               ; preds = %13, %11
  %15 = phi ptr [ %12, %11 ], [ null, %13 ]
  store ptr %15, ptr %6, align 8, !tbaa !76
  %16 = load ptr, ptr %6, align 8, !tbaa !76
  %17 = icmp eq ptr %16, null
  br i1 %17, label %18, label %19

18:                                               ; preds = %14
  store i1 false, ptr %3, align 1
  store i32 1, ptr %7, align 4
  br label %53

19:                                               ; preds = %14
  %20 = getelementptr inbounds nuw %"class.icu_77::number::impl::ConstantMultiFieldModifier", ptr %8, i32 0, i32 1
  %21 = load ptr, ptr %6, align 8, !tbaa !76
  %22 = getelementptr inbounds nuw %"class.icu_77::number::impl::ConstantMultiFieldModifier", ptr %21, i32 0, i32 1
  %23 = call noundef zeroext i1 @_ZNK6icu_7722FormattedStringBuilder13contentEqualsERKS0_(ptr noundef nonnull align 8 dereferenceable(136) %20, ptr noundef nonnull align 8 dereferenceable(136) %22)
  br i1 %23, label %24, label %51

24:                                               ; preds = %19
  %25 = getelementptr inbounds nuw %"class.icu_77::number::impl::ConstantMultiFieldModifier", ptr %8, i32 0, i32 2
  %26 = load ptr, ptr %6, align 8, !tbaa !76
  %27 = getelementptr inbounds nuw %"class.icu_77::number::impl::ConstantMultiFieldModifier", ptr %26, i32 0, i32 2
  %28 = call noundef zeroext i1 @_ZNK6icu_7722FormattedStringBuilder13contentEqualsERKS0_(ptr noundef nonnull align 8 dereferenceable(136) %25, ptr noundef nonnull align 8 dereferenceable(136) %27)
  br i1 %28, label %29, label %51

29:                                               ; preds = %24
  %30 = getelementptr inbounds nuw %"class.icu_77::number::impl::ConstantMultiFieldModifier", ptr %8, i32 0, i32 3
  %31 = load i8, ptr %30, align 8, !tbaa !78, !range !52, !noundef !53
  %32 = trunc i8 %31 to i1
  %33 = zext i1 %32 to i32
  %34 = load ptr, ptr %6, align 8, !tbaa !76
  %35 = getelementptr inbounds nuw %"class.icu_77::number::impl::ConstantMultiFieldModifier", ptr %34, i32 0, i32 3
  %36 = load i8, ptr %35, align 8, !tbaa !78, !range !52, !noundef !53
  %37 = trunc i8 %36 to i1
  %38 = zext i1 %37 to i32
  %39 = icmp eq i32 %33, %38
  br i1 %39, label %40, label %51

40:                                               ; preds = %29
  %41 = getelementptr inbounds nuw %"class.icu_77::number::impl::ConstantMultiFieldModifier", ptr %8, i32 0, i32 4
  %42 = load i8, ptr %41, align 1, !tbaa !81, !range !52, !noundef !53
  %43 = trunc i8 %42 to i1
  %44 = zext i1 %43 to i32
  %45 = load ptr, ptr %6, align 8, !tbaa !76
  %46 = getelementptr inbounds nuw %"class.icu_77::number::impl::ConstantMultiFieldModifier", ptr %45, i32 0, i32 4
  %47 = load i8, ptr %46, align 1, !tbaa !81, !range !52, !noundef !53
  %48 = trunc i8 %47 to i1
  %49 = zext i1 %48 to i32
  %50 = icmp eq i32 %44, %49
  br label %51

51:                                               ; preds = %40, %29, %24, %19
  %52 = phi i1 [ false, %29 ], [ false, %24 ], [ false, %19 ], [ %50, %40 ]
  store i1 %52, ptr %3, align 1
  store i32 1, ptr %7, align 4
  br label %53

53:                                               ; preds = %51, %18
  call void @llvm.lifetime.end.p0(i64 8, ptr %6) #15
  %54 = load i1, ptr %3, align 1
  ret i1 %54
}