; Function Attrs: mustprogress uwtable
define noundef zeroext i1 @_ZNK6icu_776number4impl26ConstantMultiFieldModifier12strictEqualsERKNS1_8ModifierE(ptr noundef nonnull align 8 dereferenceable(304) %0, ptr noundef nonnull align 8 dereferenceable(8) %1) unnamed_addr #4 align 2 {
  %3 = tail call ptr @__dynamic_cast(ptr nonnull %1, ptr nonnull @_ZTIN6icu_776number4impl8ModifierE, ptr nonnull @_ZTIN6icu_776number4impl26ConstantMultiFieldModifierE, i64 0) #19
  %4 = icmp eq ptr %3, null
  br i1 %4, label %25, label %5

5:                                                ; preds = %2
  %6 = getelementptr inbounds nuw i8, ptr %0, i64 8
  %7 = getelementptr inbounds nuw i8, ptr %3, i64 8
  %8 = tail call noundef zeroext i1 @_ZNK6icu_7722FormattedStringBuilder13contentEqualsERKS0_(ptr noundef nonnull align 8 dereferenceable(136) %6, ptr noundef nonnull align 8 dereferenceable(136) %7)
  br i1 %8, label %9, label %25

9:                                                ; preds = %5
  %10 = getelementptr inbounds nuw i8, ptr %0, i64 144
  %11 = getelementptr inbounds nuw i8, ptr %3, i64 144
  %12 = tail call noundef zeroext i1 @_ZNK6icu_7722FormattedStringBuilder13contentEqualsERKS0_(ptr noundef nonnull align 8 dereferenceable(136) %10, ptr noundef nonnull align 8 dereferenceable(136) %11)
  br i1 %12, label %13, label %25

13:                                               ; preds = %9
  %14 = getelementptr inbounds nuw i8, ptr %0, i64 280
  %15 = load i8, ptr %14, align 8, !tbaa !48, !range !30, !noundef !31
  %16 = getelementptr inbounds nuw i8, ptr %3, i64 280
  %17 = load i8, ptr %16, align 8, !tbaa !48, !range !30, !noundef !31
  %18 = icmp eq i8 %15, %17
  br i1 %18, label %19, label %25

19:                                               ; preds = %13
  %20 = getelementptr inbounds nuw i8, ptr %0, i64 281
  %21 = load i8, ptr %20, align 1, !tbaa !51, !range !30, !noundef !31
  %22 = getelementptr inbounds nuw i8, ptr %3, i64 281
  %23 = load i8, ptr %22, align 1, !tbaa !51, !range !30, !noundef !31
  %24 = icmp eq i8 %21, %23
  br label %25

25:                                               ; preds = %5, %9, %13, %19, %2
  %.0 = phi i1 [ false, %2 ], [ false, %13 ], [ false, %9 ], [ false, %5 ], [ %24, %19 ]
  ret i1 %.0
}